target datalayout = "e-m:e-p270:32:32-p271:32:32-p272:64:64-i64:64-i128:128-f80:128-n8:16:32:64-S128"
target triple = "x86_64-pc-linux-gnu"

%struct.lv_ll_t = type { i32, ptr, ptr }
%struct._lv_display_t = type { i32, i32, i32, i32, i32, i32, i32, ptr, ptr, ptr, ptr, ptr, i32, i32, i8, i32, i16, i32, [32 x %struct.lv_area_t], [32 x i8], i32, i32, %struct.lv_ll_t, %struct._lv_draw_buf_t, %struct._lv_draw_buf_t, ptr, ptr, ptr, ptr, ptr, ptr, ptr, ptr, ptr, ptr, i32, i8, ptr, ptr, %struct.lv_event_list_t, i8, ptr, ptr, i32, %struct.lv_area_t }
%struct._lv_draw_buf_t = type { %struct.lv_image_header_t, i32, ptr, ptr, ptr }
%struct.lv_image_header_t = type <{ i64, i32 }>
%struct.lv_event_list_t = type { %struct._lv_array_t, i8 }
%struct._lv_array_t = type { ptr, i32, i32, i32, i8 }
%struct.lv_area_t = type { i32, i32, i32, i32 }

; Function Attrs: inlinehint nounwind uwtable
define internal void @lv_area_copy(ptr noundef %0, ptr noundef %1) #4 {
  %3 = alloca ptr, align 8
  %4 = alloca ptr, align 8
  store ptr %0, ptr %3, align 8, !tbaa !3
  store ptr %1, ptr %4, align 8, !tbaa !3
  %5 = load ptr, ptr %4, align 8, !tbaa !3
  %6 = getelementptr inbounds nuw %struct.lv_area_t, ptr %5, i32 0, i32 0
  %7 = load i32, ptr %6, align 4, !tbaa !67
  %8 = load ptr, ptr %3, align 8, !tbaa !3
  %9 = getelementptr inbounds nuw %struct.lv_area_t, ptr %8, i32 0, i32 0
  store i32 %7, ptr %9, align 4, !tbaa !67
  %10 = load ptr, ptr %4, align 8, !tbaa !3
  %11 = getelementptr inbounds nuw %struct.lv_area_t, ptr %10, i32 0, i32 1
  %12 = load i32, ptr %11, align 4, !tbaa !59
  %13 = load ptr, ptr %3, align 8, !tbaa !3
  %14 = getelementptr inbounds nuw %struct.lv_area_t, ptr %13, i32 0, i32 1
  store i32 %12, ptr %14, align 4, !tbaa !59
  %15 = load ptr, ptr %4, align 8, !tbaa !3
  %16 = getelementptr inbounds nuw %struct.lv_area_t, ptr %15, i32 0, i32 2
  %17 = load i32, ptr %16, align 4, !tbaa !68
  %18 = load ptr, ptr %3, align 8, !tbaa !3
  %19 = getelementptr inbounds nuw %struct.lv_area_t, ptr %18, i32 0, i32 2
  store i32 %17, ptr %19, align 4, !tbaa !68
  %20 = load ptr, ptr %4, align 8, !tbaa !3
  %21 = getelementptr inbounds nuw %struct.lv_area_t, ptr %20, i32 0, i32 3
  %22 = load i32, ptr %21, align 4, !tbaa !58
  %23 = load ptr, ptr %3, align 8, !tbaa !3
  %24 = getelementptr inbounds nuw %struct.lv_area_t, ptr %23, i32 0, i32 3
  store i32 %22, ptr %24, align 4, !tbaa !58
  ret void
}

; Function Attrs: nounwind uwtable
define void @lv_inv_area(ptr noundef %0, ptr noundef %1) #0 {
  %3 = alloca ptr, align 8
  %4 = alloca ptr, align 8
  %5 = alloca %struct.lv_area_t, align 4
  %6 = alloca %struct.lv_area_t, align 4
  %7 = alloca i8, align 1
  %8 = alloca i32, align 4
  %9 = alloca i32, align 4
  %10 = alloca i16, align 2
  %11 = alloca ptr, align 8
  store ptr %0, ptr %3, align 8, !tbaa !3
  store ptr %1, ptr %4, align 8, !tbaa !3
  %12 = load ptr, ptr %3, align 8, !tbaa !3
  %13 = icmp ne ptr %12, null
  br i1 %13, label %16, label %14

14:                                               ; preds = %2
  %15 = call ptr @lv_display_get_default()
  store ptr %15, ptr %3, align 8, !tbaa !3
  br label %16

16:                                               ; preds = %14, %2
  %17 = load ptr, ptr %3, align 8, !tbaa !3
  %18 = icmp ne ptr %17, null
  br i1 %18, label %20, label %19

19:                                               ; preds = %16
  br label %143

20:                                               ; preds = %16
  %21 = load ptr, ptr %3, align 8, !tbaa !3
  %22 = call zeroext i1 @lv_display_is_invalidation_enabled(ptr noundef %21)
  br i1 %22, label %24, label %23

23:                                               ; preds = %20
  br label %143

24:                                               ; preds = %20
  br label %25

25:                                               ; preds = %24
  %26 = load ptr, ptr %3, align 8, !tbaa !3
  %27 = getelementptr inbounds nuw %struct._lv_display_t, ptr %26, i32 0, i32 16
  %28 = load i16, ptr %27, align 8
  %29 = lshr i16 %28, 9
  %30 = and i16 %29, 1
  %31 = zext i16 %30 to i32
  %32 = icmp ne i32 %31, 0
  br i1 %32, label %33, label %37

33:                                               ; preds = %25
  br label %34

34:                                               ; preds = %33
  br label %35

35:                                               ; preds = %34
  br label %36

36:                                               ; preds = %35, %36
  br label %36

37:                                               ; preds = %25
  br label %38

38:                                               ; preds = %37
  %39 = load ptr, ptr %4, align 8, !tbaa !3
  %40 = icmp eq ptr %39, null
  br i1 %40, label %41, label %44

41:                                               ; preds = %38
  %42 = load ptr, ptr %3, align 8, !tbaa !3
  %43 = getelementptr inbounds nuw %struct._lv_display_t, ptr %42, i32 0, i32 20
  store i32 0, ptr %43, align 8, !tbaa !39
  br label %143

44:                                               ; preds = %38
  call void @llvm.lifetime.start.p0(i64 16, ptr %5) #6
  %45 = getelementptr inbounds nuw %struct.lv_area_t, ptr %5, i32 0, i32 0
  store i32 0, ptr %45, align 4, !tbaa !67
  %46 = getelementptr inbounds nuw %struct.lv_area_t, ptr %5, i32 0, i32 1
  store i32 0, ptr %46, align 4, !tbaa !59
  %47 = load ptr, ptr %3, align 8, !tbaa !3
  %48 = call i32 @lv_display_get_horizontal_resolution(ptr noundef %47)
  %49 = sub nsw i32 %48, 1
  %50 = getelementptr inbounds nuw %struct.lv_area_t, ptr %5, i32 0, i32 2
  store i32 %49, ptr %50, align 4, !tbaa !68
  %51 = load ptr, ptr %3, align 8, !tbaa !3
  %52 = call i32 @lv_display_get_vertical_resolution(ptr noundef %51)
  %53 = sub nsw i32 %52, 1
  %54 = getelementptr inbounds nuw %struct.lv_area_t, ptr %5, i32 0, i32 3
  store i32 %53, ptr %54, align 4, !tbaa !58
  call void @llvm.lifetime.start.p0(i64 16, ptr %6) #6
  call void @llvm.lifetime.start.p0(i64 1, ptr %7) #6
  %55 = load ptr, ptr %4, align 8, !tbaa !3
  %56 = call zeroext i1 @lv_area_intersect(ptr noundef %6, ptr noundef %55, ptr noundef %5)
  %57 = zext i1 %56 to i8
  store i8 %57, ptr %7, align 1, !tbaa !45
  %58 = load i8, ptr %7, align 1, !tbaa !45, !range !46, !noundef !47
  %59 = trunc i8 %58 to i1
  %60 = zext i1 %59 to i32
  %61 = icmp eq i32 %60, 0
  br i1 %61, label %62, label %63

62:                                               ; preds = %44
  store i32 1, ptr %8, align 4
  br label %141

63:                                               ; preds = %44
  %64 = load ptr, ptr %3, align 8, !tbaa !3
  %65 = getelementptr inbounds nuw %struct._lv_display_t, ptr %64, i32 0, i32 17
  %66 = load i32, ptr %65, align 4, !tbaa !66
  %67 = icmp eq i32 %66, 7
  br i1 %67, label %68, label %75

68:                                               ; preds = %63
  %69 = getelementptr inbounds nuw %struct.lv_area_t, ptr %6, i32 0, i32 0
  %70 = load i32, ptr %69, align 4, !tbaa !67
  %71 = and i32 %70, -8
  store i32 %71, ptr %69, align 4, !tbaa !67
  %72 = getelementptr inbounds nuw %struct.lv_area_t, ptr %6, i32 0, i32 2
  %73 = load i32, ptr %72, align 4, !tbaa !68
  %74 = or i32 %73, 7
  store i32 %74, ptr %72, align 4, !tbaa !68
  br label %75

75:                                               ; preds = %68, %63
  %76 = load ptr, ptr %3, align 8, !tbaa !3
  %77 = getelementptr inbounds nuw %struct._lv_display_t, ptr %76, i32 0, i32 15
  %78 = load i32, ptr %77, align 4, !tbaa !40
  %79 = icmp eq i32 %78, 2
  br i1 %79, label %80, label %88

80:                                               ; preds = %75
  %81 = load ptr, ptr %3, align 8, !tbaa !3
  %82 = getelementptr inbounds nuw %struct._lv_display_t, ptr %81, i32 0, i32 18
  %83 = getelementptr inbounds [32 x %struct.lv_area_t], ptr %82, i64 0, i64 0
  call void @llvm.memcpy.p0.p0.i64(ptr align 8 %83, ptr align 4 %5, i64 16, i1 false), !tbaa.struct !43
  %84 = load ptr, ptr %3, align 8, !tbaa !3
  %85 = getelementptr inbounds nuw %struct._lv_display_t, ptr %84, i32 0, i32 20
  store i32 1, ptr %85, align 8, !tbaa !39
  %86 = load ptr, ptr %3, align 8, !tbaa !3
  %87 = call i32 @lv_display_send_event(ptr noundef %86, i32 noundef 56, ptr noundef null)
  store i32 1, ptr %8, align 4
  br label %141

88:                                               ; preds = %75
  call void @llvm.lifetime.start.p0(i64 4, ptr %9) #6
  %89 = load ptr, ptr %3, align 8, !tbaa !3
  %90 = call i32 @lv_display_send_event(ptr noundef %89, i32 noundef 53, ptr noundef %6)
  store i32 %90, ptr %9, align 4, !tbaa !41
  %91 = load i32, ptr %9, align 4, !tbaa !41
  %92 = icmp ne i32 %91, 1
  br i1 %92, label %93, label %94

93:                                               ; preds = %88
  store i32 1, ptr %8, align 4
  br label %140

94:                                               ; preds = %88
  call void @llvm.lifetime.start.p0(i64 2, ptr %10) #6
  store i16 0, ptr %10, align 2, !tbaa !88
  br label %95

95:                                               ; preds = %113, %94
  %96 = load i16, ptr %10, align 2, !tbaa !88
  %97 = zext i16 %96 to i32
  %98 = load ptr, ptr %3, align 8, !tbaa !3
  %99 = getelementptr inbounds nuw %struct._lv_display_t, ptr %98, i32 0, i32 20
  %100 = load i32, ptr %99, align 8, !tbaa !39
  %101 = icmp ult i32 %97, %100
  br i1 %101, label %102, label %116

102:                                              ; preds = %95
  %103 = load ptr, ptr %3, align 8, !tbaa !3
  %104 = getelementptr inbounds nuw %struct._lv_display_t, ptr %103, i32 0, i32 18
  %105 = load i16, ptr %10, align 2, !tbaa !88
  %106 = zext i16 %105 to i64
  %107 = getelementptr inbounds nuw [32 x %struct.lv_area_t], ptr %104, i64 0, i64 %106
  %108 = call zeroext i1 @lv_area_is_in(ptr noundef %6, ptr noundef %107, i32 noundef 0)
  %109 = zext i1 %108 to i32
  %110 = icmp ne i32 %109, 0
  br i1 %110, label %111, label %112

111:                                              ; preds = %102
  store i32 1, ptr %8, align 4
  br label %139

112:                                              ; preds = %102
  br label %113

113:                                              ; preds = %112
  %114 = load i16, ptr %10, align 2, !tbaa !88
  %115 = add i16 %114, 1
  store i16 %115, ptr %10, align 2, !tbaa !88
  br label %95, !llvm.loop !89

116:                                              ; preds = %95
  call void @llvm.lifetime.start.p0(i64 8, ptr %11) #6
  store ptr %6, ptr %11, align 8, !tbaa !3
  %117 = load ptr, ptr %3, align 8, !tbaa !3
  %118 = getelementptr inbounds nuw %struct._lv_display_t, ptr %117, i32 0, i32 20
  %119 = load i32, ptr %118, align 8, !tbaa !39
  %120 = icmp uge i32 %119, 32
  br i1 %120, label %121, label %124

121:                                              ; preds = %116
  %122 = load ptr, ptr %3, align 8, !tbaa !3
  %123 = getelementptr inbounds nuw %struct._lv_display_t, ptr %122, i32 0, i32 20
  store i32 0, ptr %123, align 8, !tbaa !39
  store ptr %5, ptr %11, align 8, !tbaa !3
  br label %124

124:                                              ; preds = %121, %116
  %125 = load ptr, ptr %3, align 8, !tbaa !3
  %126 = getelementptr inbounds nuw %struct._lv_display_t, ptr %125, i32 0, i32 18
  %127 = load ptr, ptr %3, align 8, !tbaa !3
  %128 = getelementptr inbounds nuw %struct._lv_display_t, ptr %127, i32 0, i32 20
  %129 = load i32, ptr %128, align 8, !tbaa !39
  %130 = zext i32 %129 to i64
  %131 = getelementptr inbounds nuw [32 x %struct.lv_area_t], ptr %126, i64 0, i64 %130
  %132 = load ptr, ptr %11, align 8, !tbaa !3
  call void @lv_area_copy(ptr noundef %131, ptr noundef %132)
  %133 = load ptr, ptr %3, align 8, !tbaa !3
  %134 = getelementptr inbounds nuw %struct._lv_display_t, ptr %133, i32 0, i32 20
  %135 = load i32, ptr %134, align 8, !tbaa !39
  %136 = add i32 %135, 1
  store i32 %136, ptr %134, align 8, !tbaa !39
  %137 = load ptr, ptr %3, align 8, !tbaa !3
  %138 = call i32 @lv_display_send_event(ptr noundef %137, i32 noundef 56, ptr noundef null)
  call void @llvm.lifetime.end.p0(i64 8, ptr %11) #6
  store i32 0, ptr %8, align 4
  br label %139

139:                                              ; preds = %124, %111
  call void @llvm.lifetime.end.p0(i64 2, ptr %10) #6
  br label %140

140:                                              ; preds = %139, %93
  call void @llvm.lifetime.end.p0(i64 4, ptr %9) #6
  br label %141

141:                                              ; preds = %140, %80, %62
  call void @llvm.lifetime.end.p0(i64 1, ptr %7) #6
  call void @llvm.lifetime.end.p0(i64 16, ptr %6) #6
  call void @llvm.lifetime.end.p0(i64 16, ptr %5) #6
  %142 = load i32, ptr %8, align 4
  switch i32 %142, label %144 [
    i32 0, label %143
    i32 1, label %143
  ]

143:                                              ; preds = %19, %23, %41, %141, %141
  ret void

144:                                              ; preds = %141
  unreachable
}