; Function Attrs: nounwind uwtable
define void @lv_inv_area(ptr noundef %0, ptr noundef %1) local_unnamed_addr #1 {
  %3 = alloca %struct.lv_area_t, align 4
  %4 = alloca %struct.lv_area_t, align 4
  %.not = icmp eq ptr %0, null
  %.0.sroa.gep = getelementptr inbounds nuw i8, ptr %3, i64 4
  %.0.sroa.gep36 = getelementptr inbounds nuw i8, ptr %4, i64 4
  %.0.sroa.gep38 = getelementptr inbounds nuw i8, ptr %3, i64 8
  %.0.sroa.gep39 = getelementptr inbounds nuw i8, ptr %4, i64 8
  %.0.sroa.gep41 = getelementptr inbounds nuw i8, ptr %3, i64 12
  %.0.sroa.gep42 = getelementptr inbounds nuw i8, ptr %4, i64 12
  br i1 %.not, label %5, label %.thread

5:                                                ; preds = %2
  %6 = tail call ptr @lv_display_get_default() #9
  %.not33 = icmp eq ptr %6, null
  br i1 %.not33, label %67, label %.thread

.thread:                                          ; preds = %2, %5
  %.02945 = phi ptr [ %6, %5 ], [ %0, %2 ]
  %7 = tail call zeroext i1 @lv_display_is_invalidation_enabled(ptr noundef nonnull %.02945) #9
  br i1 %7, label %8, label %67

8:                                                ; preds = %.thread
  %9 = getelementptr inbounds nuw i8, ptr %.02945, i64 88
  %10 = load i16, ptr %9, align 8
  %11 = and i16 %10, 512
  %.not34 = icmp eq i16 %11, 0
  br i1 %.not34, label %12, label %.preheader46

.preheader46:                                     ; preds = %8, %.preheader46
  br label %.preheader46

12:                                               ; preds = %8
  %13 = icmp eq ptr %1, null
  br i1 %13, label %14, label %16

14:                                               ; preds = %12
  %15 = getelementptr inbounds nuw i8, ptr %.02945, i64 640
  store i32 0, ptr %15, align 8, !tbaa !38
  br label %67

16:                                               ; preds = %12
  call void @llvm.lifetime.start.p0(i64 16, ptr nonnull %3) #9
  store i32 0, ptr %3, align 4, !tbaa !40
  store i32 0, ptr %.0.sroa.gep, align 4, !tbaa !41
  %17 = tail call i32 @lv_display_get_horizontal_resolution(ptr noundef nonnull %.02945) #9
  %18 = add nsw i32 %17, -1
  store i32 %18, ptr %.0.sroa.gep38, align 4, !tbaa !42
  %19 = tail call i32 @lv_display_get_vertical_resolution(ptr noundef nonnull %.02945) #9
  %20 = add nsw i32 %19, -1
  store i32 %20, ptr %.0.sroa.gep41, align 4, !tbaa !43
  call void @llvm.lifetime.start.p0(i64 16, ptr nonnull %4) #9
  %21 = call zeroext i1 @lv_area_intersect(ptr noundef nonnull %4, ptr noundef nonnull %1, ptr noundef nonnull %3) #9
  br i1 %21, label %22, label %.loopexit

22:                                               ; preds = %16
  %23 = getelementptr inbounds nuw i8, ptr %.02945, i64 92
  %24 = load i32, ptr %23, align 4, !tbaa !60
  %25 = icmp eq i32 %24, 7
  br i1 %25, label %26, label %31

26:                                               ; preds = %22
  %27 = load i32, ptr %4, align 4, !tbaa !40
  %28 = and i32 %27, -8
  store i32 %28, ptr %4, align 4, !tbaa !40
  %29 = load i32, ptr %.0.sroa.gep39, align 4, !tbaa !42
  %30 = or i32 %29, 7
  store i32 %30, ptr %.0.sroa.gep39, align 4, !tbaa !42
  br label %31

31:                                               ; preds = %26, %22
  %32 = getelementptr inbounds nuw i8, ptr %.02945, i64 84
  %33 = load i32, ptr %32, align 4, !tbaa !46
  %34 = icmp eq i32 %33, 2
  br i1 %34, label %35, label %38

35:                                               ; preds = %31
  %36 = getelementptr inbounds nuw i8, ptr %.02945, i64 96
  call void @llvm.memcpy.p0.p0.i64(ptr noundef nonnull align 8 dereferenceable(16) %36, ptr noundef nonnull align 4 dereferenceable(16) %3, i64 16, i1 false), !tbaa.struct !53
  %37 = getelementptr inbounds nuw i8, ptr %.02945, i64 640
  store i32 1, ptr %37, align 8, !tbaa !38
  br label %.loopexit.sink.split

38:                                               ; preds = %31
  %39 = call i32 @lv_display_send_event(ptr noundef nonnull %.02945, i32 noundef 53, ptr noundef nonnull %4) #9
  %.not35 = icmp eq i32 %39, 1
  br i1 %.not35, label %.preheader, label %.loopexit

.preheader:                                       ; preds = %38
  %40 = getelementptr inbounds nuw i8, ptr %.02945, i64 640
  %41 = load i32, ptr %40, align 8, !tbaa !38
  %.not51 = icmp eq i32 %41, 0
  br i1 %.not51, label %._crit_edge.thread, label %.lr.ph

.lr.ph:                                           ; preds = %.preheader
  %42 = getelementptr inbounds nuw i8, ptr %.02945, i64 96
  br label %48

43:                                               ; preds = %48
  %44 = add i16 %.02850, 1
  %45 = zext i16 %44 to i32
  %46 = load i32, ptr %40, align 8, !tbaa !38
  %47 = icmp ugt i32 %46, %45
  br i1 %47, label %48, label %._crit_edge, !llvm.loop !100

48:                                               ; preds = %.lr.ph, %43
  %.02850 = phi i16 [ 0, %.lr.ph ], [ %44, %43 ]
  %49 = zext i16 %.02850 to i64
  %50 = getelementptr inbounds nuw [32 x %struct.lv_area_t], ptr %42, i64 0, i64 %49
  %51 = call zeroext i1 @lv_area_is_in(ptr noundef nonnull %4, ptr noundef nonnull %50, i32 noundef 0) #9
  br i1 %51, label %.loopexit, label %43

._crit_edge:                                      ; preds = %43
  %52 = icmp ugt i32 %46, 31
  br i1 %52, label %53, label %._crit_edge.thread

53:                                               ; preds = %._crit_edge
  br label %._crit_edge.thread

._crit_edge.thread:                               ; preds = %.preheader, %53, %._crit_edge
  %54 = phi i32 [ 0, %53 ], [ %46, %._crit_edge ], [ 0, %.preheader ]
  %.0.sroa.phi = phi ptr [ %.0.sroa.gep, %53 ], [ %.0.sroa.gep36, %._crit_edge ], [ %.0.sroa.gep36, %.preheader ]
  %.0.sroa.phi37 = phi ptr [ %.0.sroa.gep38, %53 ], [ %.0.sroa.gep39, %._crit_edge ], [ %.0.sroa.gep39, %.preheader ]
  %.0.sroa.phi40 = phi ptr [ %.0.sroa.gep41, %53 ], [ %.0.sroa.gep42, %._crit_edge ], [ %.0.sroa.gep42, %.preheader ]
  %.0 = phi ptr [ %3, %53 ], [ %4, %._crit_edge ], [ %4, %.preheader ]
  %55 = getelementptr inbounds nuw i8, ptr %.02945, i64 96
  %56 = zext nneg i32 %54 to i64
  %57 = getelementptr inbounds nuw [32 x %struct.lv_area_t], ptr %55, i64 0, i64 %56
  %58 = load i32, ptr %.0, align 4, !tbaa !40
  store i32 %58, ptr %57, align 4, !tbaa !40
  %59 = load i32, ptr %.0.sroa.phi, align 4, !tbaa !41
  %60 = getelementptr inbounds nuw i8, ptr %57, i64 4
  store i32 %59, ptr %60, align 4, !tbaa !41
  %61 = load i32, ptr %.0.sroa.phi37, align 4, !tbaa !42
  %62 = getelementptr inbounds nuw i8, ptr %57, i64 8
  store i32 %61, ptr %62, align 4, !tbaa !42
  %63 = load i32, ptr %.0.sroa.phi40, align 4, !tbaa !43
  %64 = getelementptr inbounds nuw i8, ptr %57, i64 12
  store i32 %63, ptr %64, align 4, !tbaa !43
  %65 = add nuw nsw i32 %54, 1
  store i32 %65, ptr %40, align 8, !tbaa !38
  br label %.loopexit.sink.split

.loopexit.sink.split:                             ; preds = %35, %._crit_edge.thread
  %66 = call i32 @lv_display_send_event(ptr noundef nonnull %.02945, i32 noundef 56, ptr noundef null) #9
  br label %.loopexit

.loopexit:                                        ; preds = %48, %.loopexit.sink.split, %38, %16
  call void @llvm.lifetime.end.p0(i64 16, ptr nonnull %4) #9
  call void @llvm.lifetime.end.p0(i64 16, ptr nonnull %3) #9
  br label %67

67:                                               ; preds = %.thread, %5, %.loopexit, %14
  ret void
}